target datalayout = "e-m:e-p270:32:32-p271:32:32-p272:64:64-i64:64-i128:128-f80:128-n8:16:32:64-S128"
target triple = "x86_64-pc-linux-gnu"

%struct.FunctionCallInfoBaseData = type { ptr, ptr, ptr, i32, i8, i16, [0 x %struct.NullableDatum] }
%struct.NullableDatum = type { i64, i8 }
%struct.anon = type { i32, [0 x i8] }
%struct.varattrib_1b = type { i8, [0 x i8] }
%struct.varattrib_1b_e = type { i8, i8, [0 x i8] }

@.str = private unnamed_addr constant [38 x i8] c"value too long for type character(%d)\00", align 1
@.str.1 = private unnamed_addr constant [10 x i8] c"varchar.c\00", align 1
@__func__.bpchar = private unnamed_addr constant [7 x i8] c"bpchar\00", align 1

; Function Attrs: inlinehint nounwind uwtable
define internal i64 @PointerGetDatum(ptr noundef %0) #2 {
  %2 = alloca ptr, align 8
  store ptr %0, ptr %2, align 8
  %3 = load ptr, ptr %2, align 8
  %4 = ptrtoint ptr %3 to i64
  ret i64 %4
}

; Function Attrs: inlinehint nounwind uwtable
define internal zeroext i1 @DatumGetBool(i64 noundef %0) #2 {
  %2 = alloca i64, align 8
  store i64 %0, ptr %2, align 8
  %3 = load i64, ptr %2, align 8
  %4 = icmp ne i64 %3, 0
  ret i1 %4
}

; Function Attrs: inlinehint nounwind uwtable
define internal i32 @DatumGetInt32(i64 noundef %0) #2 {
  %2 = alloca i64, align 8
  store i64 %0, ptr %2, align 8
  %3 = load i64, ptr %2, align 8
  %4 = trunc i64 %3 to i32
  ret i32 %4
}

; Function Attrs: inlinehint nounwind uwtable
define internal ptr @DatumGetPointer(i64 noundef %0) #2 {
  %2 = alloca i64, align 8
  store i64 %0, ptr %2, align 8
  %3 = load i64, ptr %2, align 8
  %4 = inttoptr i64 %3 to ptr
  ret ptr %4
}

; Function Attrs: nounwind uwtable
define dso_local i64 @bpchar(ptr noundef %0) #0 {
  %2 = alloca i64, align 8
  %3 = alloca ptr, align 8
  %4 = alloca ptr, align 8
  %5 = alloca i32, align 4
  %6 = alloca i8, align 1
  %7 = alloca ptr, align 8
  %8 = alloca i32, align 4
  %9 = alloca ptr, align 8
  %10 = alloca ptr, align 8
  %11 = alloca i32, align 4
  %12 = alloca i32, align 4
  %13 = alloca i32, align 4
  %14 = alloca i64, align 8
  store ptr %0, ptr %3, align 8
  call void @llvm.lifetime.start.p0(i64 8, ptr %4) #8
  %15 = load ptr, ptr %3, align 8
  %16 = getelementptr inbounds nuw %struct.FunctionCallInfoBaseData, ptr %15, i32 0, i32 6
  %17 = getelementptr inbounds [0 x %struct.NullableDatum], ptr %16, i64 0, i64 0
  %18 = getelementptr inbounds nuw %struct.NullableDatum, ptr %17, i32 0, i32 0
  %19 = load i64, ptr %18, align 8
  %20 = call ptr @DatumGetPointer(i64 noundef %19)
  %21 = call ptr @pg_detoast_datum_packed(ptr noundef %20)
  store ptr %21, ptr %4, align 8
  call void @llvm.lifetime.start.p0(i64 4, ptr %5) #8
  %22 = load ptr, ptr %3, align 8
  %23 = getelementptr inbounds nuw %struct.FunctionCallInfoBaseData, ptr %22, i32 0, i32 6
  %24 = getelementptr inbounds [0 x %struct.NullableDatum], ptr %23, i64 0, i64 1
  %25 = getelementptr inbounds nuw %struct.NullableDatum, ptr %24, i32 0, i32 0
  %26 = load i64, ptr %25, align 8
  %27 = call i32 @DatumGetInt32(i64 noundef %26)
  store i32 %27, ptr %5, align 4
  call void @llvm.lifetime.start.p0(i64 1, ptr %6) #8
  %28 = load ptr, ptr %3, align 8
  %29 = getelementptr inbounds nuw %struct.FunctionCallInfoBaseData, ptr %28, i32 0, i32 6
  %30 = getelementptr inbounds [0 x %struct.NullableDatum], ptr %29, i64 0, i64 2
  %31 = getelementptr inbounds nuw %struct.NullableDatum, ptr %30, i32 0, i32 0
  %32 = load i64, ptr %31, align 8
  %33 = call zeroext i1 @DatumGetBool(i64 noundef %32)
  %34 = zext i1 %33 to i8
  store i8 %34, ptr %6, align 1
  call void @llvm.lifetime.start.p0(i64 8, ptr %7) #8
  call void @llvm.lifetime.start.p0(i64 4, ptr %8) #8
  call void @llvm.lifetime.start.p0(i64 8, ptr %9) #8
  call void @llvm.lifetime.start.p0(i64 8, ptr %10) #8
  call void @llvm.lifetime.start.p0(i64 4, ptr %11) #8
  call void @llvm.lifetime.start.p0(i64 4, ptr %12) #8
  %35 = load i32, ptr %5, align 4
  %36 = icmp slt i32 %35, 4
  br i1 %36, label %37, label %40

37:                                               ; preds = %1
  %38 = load ptr, ptr %4, align 8
  %39 = call i64 @PointerGetDatum(ptr noundef %38)
  store i64 %39, ptr %2, align 8
  store i32 1, ptr %13, align 4
  br label %217

40:                                               ; preds = %1
  %41 = load i32, ptr %5, align 4
  %42 = sub i32 %41, 4
  store i32 %42, ptr %5, align 4
  %43 = load ptr, ptr %4, align 8
  %44 = getelementptr inbounds nuw %struct.varattrib_1b, ptr %43, i32 0, i32 0
  %45 = load i8, ptr %44, align 1
  %46 = zext i8 %45 to i32
  %47 = icmp eq i32 %46, 1
  br i1 %47, label %48, label %76

48:                                               ; preds = %40
  %49 = load ptr, ptr %4, align 8
  %50 = getelementptr inbounds nuw %struct.varattrib_1b_e, ptr %49, i32 0, i32 1
  %51 = load i8, ptr %50, align 1
  %52 = zext i8 %51 to i32
  %53 = icmp eq i32 %52, 1
  br i1 %53, label %54, label %55

54:                                               ; preds = %48
  br label %72

55:                                               ; preds = %48
  %56 = load ptr, ptr %4, align 8
  %57 = getelementptr inbounds nuw %struct.varattrib_1b_e, ptr %56, i32 0, i32 1
  %58 = load i8, ptr %57, align 1
  %59 = zext i8 %58 to i32
  %60 = and i32 %59, -2
  %61 = icmp eq i32 %60, 2
  br i1 %61, label %62, label %63

62:                                               ; preds = %55
  br label %70

63:                                               ; preds = %55
  %64 = load ptr, ptr %4, align 8
  %65 = getelementptr inbounds nuw %struct.varattrib_1b_e, ptr %64, i32 0, i32 1
  %66 = load i8, ptr %65, align 1
  %67 = zext i8 %66 to i32
  %68 = icmp eq i32 %67, 18
  %69 = select i1 %68, i64 16, i64 0
  br label %70

70:                                               ; preds = %63, %62
  %71 = phi i64 [ 8, %62 ], [ %69, %63 ]
  br label %72

72:                                               ; preds = %70, %54
  %73 = phi i64 [ 8, %54 ], [ %71, %70 ]
  %74 = add i64 2, %73
  %75 = sub i64 %74, 2
  br label %102

76:                                               ; preds = %40
  %77 = load ptr, ptr %4, align 8
  %78 = getelementptr inbounds nuw %struct.varattrib_1b, ptr %77, i32 0, i32 0
  %79 = load i8, ptr %78, align 1
  %80 = zext i8 %79 to i32
  %81 = and i32 %80, 1
  %82 = icmp eq i32 %81, 1
  br i1 %82, label %83, label %92

83:                                               ; preds = %76
  %84 = load ptr, ptr %4, align 8
  %85 = getelementptr inbounds nuw %struct.varattrib_1b, ptr %84, i32 0, i32 0
  %86 = load i8, ptr %85, align 1
  %87 = zext i8 %86 to i32
  %88 = ashr i32 %87, 1
  %89 = and i32 %88, 127
  %90 = sext i32 %89 to i64
  %91 = sub i64 %90, 1
  br label %100

92:                                               ; preds = %76
  %93 = load ptr, ptr %4, align 8
  %94 = getelementptr inbounds nuw %struct.anon, ptr %93, i32 0, i32 0
  %95 = load i32, ptr %94, align 4
  %96 = lshr i32 %95, 2
  %97 = and i32 %96, 1073741823
  %98 = sub i32 %97, 4
  %99 = zext i32 %98 to i64
  br label %100

100:                                              ; preds = %92, %83
  %101 = phi i64 [ %91, %83 ], [ %99, %92 ]
  br label %102

102:                                              ; preds = %100, %72
  %103 = phi i64 [ %75, %72 ], [ %101, %100 ]
  %104 = trunc i64 %103 to i32
  store i32 %104, ptr %8, align 4
  %105 = load ptr, ptr %4, align 8
  %106 = getelementptr inbounds nuw %struct.varattrib_1b, ptr %105, i32 0, i32 0
  %107 = load i8, ptr %106, align 1
  %108 = zext i8 %107 to i32
  %109 = and i32 %108, 1
  %110 = icmp eq i32 %109, 1
  br i1 %110, label %111, label %115

111:                                              ; preds = %102
  %112 = load ptr, ptr %4, align 8
  %113 = getelementptr inbounds nuw %struct.varattrib_1b, ptr %112, i32 0, i32 1
  %114 = getelementptr inbounds [0 x i8], ptr %113, i64 0, i64 0
  br label %119

115:                                              ; preds = %102
  %116 = load ptr, ptr %4, align 8
  %117 = getelementptr inbounds nuw %struct.anon, ptr %116, i32 0, i32 1
  %118 = getelementptr inbounds [0 x i8], ptr %117, i64 0, i64 0
  br label %119

119:                                              ; preds = %115, %111
  %120 = phi ptr [ %114, %111 ], [ %118, %115 ]
  store ptr %120, ptr %10, align 8
  %121 = load ptr, ptr %10, align 8
  %122 = load i32, ptr %8, align 4
  %123 = call i32 @pg_mbstrlen_with_len(ptr noundef %121, i32 noundef %122)
  store i32 %123, ptr %12, align 4
  %124 = load i32, ptr %12, align 4
  %125 = load i32, ptr %5, align 4
  %126 = icmp eq i32 %124, %125
  br i1 %126, label %127, label %130

127:                                              ; preds = %119
  %128 = load ptr, ptr %4, align 8
  %129 = call i64 @PointerGetDatum(ptr noundef %128)
  store i64 %129, ptr %2, align 8
  store i32 1, ptr %13, align 4
  br label %217

130:                                              ; preds = %119
  %131 = load i32, ptr %12, align 4
  %132 = load i32, ptr %5, align 4
  %133 = icmp sgt i32 %131, %132
  br i1 %133, label %134, label %179

134:                                              ; preds = %130
  call void @llvm.lifetime.start.p0(i64 8, ptr %14) #8
  %135 = load ptr, ptr %10, align 8
  %136 = load i32, ptr %8, align 4
  %137 = load i32, ptr %5, align 4
  %138 = call i32 @pg_mbcharcliplen(ptr noundef %135, i32 noundef %136, i32 noundef %137)
  %139 = sext i32 %138 to i64
  store i64 %139, ptr %14, align 8
  %140 = load i8, ptr %6, align 1, !range !6, !noundef !7
  %141 = trunc i8 %140 to i1
  br i1 %141, label %175, label %142

142:                                              ; preds = %134
  %143 = load i64, ptr %14, align 8
  %144 = trunc i64 %143 to i32
  store i32 %144, ptr %11, align 4
  br label %145

145:                                              ; preds = %171, %142
  %146 = load i32, ptr %11, align 4
  %147 = load i32, ptr %8, align 4
  %148 = icmp slt i32 %146, %147
  br i1 %148, label %149, label %174

149:                                              ; preds = %145
  %150 = load ptr, ptr %10, align 8
  %151 = load i32, ptr %11, align 4
  %152 = sext i32 %151 to i64
  %153 = getelementptr inbounds i8, ptr %150, i64 %152
  %154 = load i8, ptr %153, align 1
  %155 = sext i8 %154 to i32
  %156 = icmp ne i32 %155, 32
  br i1 %156, label %157, label %170

157:                                              ; preds = %149
  br label %158

158:                                              ; preds = %157
  br i1 true, label %159, label %161

159:                                              ; preds = %158
  %160 = call zeroext i1 @errstart_cold(i32 noundef 21, ptr noundef null) #10
  br i1 %160, label %163, label %167

161:                                              ; preds = %158
  %162 = call zeroext i1 @errstart(i32 noundef 21, ptr noundef null)
  br i1 %162, label %163, label %167

163:                                              ; preds = %161, %159
  %164 = call i32 @errcode(i32 noundef 16777346)
  %165 = load i32, ptr %5, align 4
  %166 = call i32 (ptr, ...) @errmsg(ptr noundef @.str, i32 noundef %165)
  call void @errfinish(ptr noundef @.str.1, i32 noundef 313, ptr noundef @__func__.bpchar)
  br label %167

167:                                              ; preds = %163, %161, %159
  unreachable

168:                                              ; No predecessors!
  br label %169

169:                                              ; preds = %168
  br label %170

170:                                              ; preds = %169, %149
  br label %171

171:                                              ; preds = %170
  %172 = load i32, ptr %11, align 4
  %173 = add i32 %172, 1
  store i32 %173, ptr %11, align 4
  br label %145, !llvm.loop !8

174:                                              ; preds = %145
  br label %175

175:                                              ; preds = %174, %134
  %176 = load i64, ptr %14, align 8
  %177 = trunc i64 %176 to i32
  store i32 %177, ptr %8, align 4
  %178 = load i32, ptr %8, align 4
  store i32 %178, ptr %5, align 4
  call void @llvm.lifetime.end.p0(i64 8, ptr %14) #8
  br label %185

179:                                              ; preds = %130
  %180 = load i32, ptr %8, align 4
  %181 = load i32, ptr %5, align 4
  %182 = load i32, ptr %12, align 4
  %183 = sub i32 %181, %182
  %184 = add i32 %180, %183
  store i32 %184, ptr %5, align 4
  br label %185

185:                                              ; preds = %179, %175
  %186 = load i32, ptr %5, align 4
  %187 = add i32 %186, 4
  %188 = sext i32 %187 to i64
  %189 = call ptr @palloc(i64 noundef %188)
  store ptr %189, ptr %7, align 8
  %190 = load i32, ptr %5, align 4
  %191 = add i32 %190, 4
  %192 = shl i32 %191, 2
  %193 = load ptr, ptr %7, align 8
  %194 = getelementptr inbounds nuw %struct.anon, ptr %193, i32 0, i32 0
  store i32 %192, ptr %194, align 4
  %195 = load ptr, ptr %7, align 8
  %196 = getelementptr inbounds nuw %struct.anon, ptr %195, i32 0, i32 1
  %197 = getelementptr inbounds [0 x i8], ptr %196, i64 0, i64 0
  store ptr %197, ptr %9, align 8
  %198 = load ptr, ptr %9, align 8
  %199 = load ptr, ptr %10, align 8
  %200 = load i32, ptr %8, align 4
  %201 = sext i32 %200 to i64
  call void @llvm.memcpy.p0.p0.i64(ptr align 1 %198, ptr align 1 %199, i64 %201, i1 false)
  %202 = load i32, ptr %5, align 4
  %203 = load i32, ptr %8, align 4
  %204 = icmp sgt i32 %202, %203
  br i1 %204, label %205, label %214

205:                                              ; preds = %185
  %206 = load ptr, ptr %9, align 8
  %207 = load i32, ptr %8, align 4
  %208 = sext i32 %207 to i64
  %209 = getelementptr inbounds i8, ptr %206, i64 %208
  %210 = load i32, ptr %5, align 4
  %211 = load i32, ptr %8, align 4
  %212 = sub i32 %210, %211
  %213 = sext i32 %212 to i64
  call void @llvm.memset.p0.i64(ptr align 1 %209, i8 32, i64 %213, i1 false)
  br label %214

214:                                              ; preds = %205, %185
  %215 = load ptr, ptr %7, align 8
  %216 = call i64 @PointerGetDatum(ptr noundef %215)
  store i64 %216, ptr %2, align 8
  store i32 1, ptr %13, align 4
  br label %217

217:                                              ; preds = %214, %127, %37
  call void @llvm.lifetime.end.p0(i64 4, ptr %12) #8
  call void @llvm.lifetime.end.p0(i64 4, ptr %11) #8
  call void @llvm.lifetime.end.p0(i64 8, ptr %10) #8
  call void @llvm.lifetime.end.p0(i64 8, ptr %9) #8
  call void @llvm.lifetime.end.p0(i64 4, ptr %8) #8
  call void @llvm.lifetime.end.p0(i64 8, ptr %7) #8
  call void @llvm.lifetime.end.p0(i64 1, ptr %6) #8
  call void @llvm.lifetime.end.p0(i64 4, ptr %5) #8
  call void @llvm.lifetime.end.p0(i64 8, ptr %4) #8
  %218 = load i64, ptr %2, align 8
  ret i64 %218
}