; Function Attrs: nounwind uwtable
define dso_local i64 @bpchar(ptr noundef readonly captures(none) %0) local_unnamed_addr #0 {
  %2 = getelementptr inbounds nuw i8, ptr %0, i64 32
  %3 = load i64, ptr %2, align 8
  %4 = inttoptr i64 %3 to ptr
  %5 = tail call ptr @pg_detoast_datum_packed(ptr noundef %4) #13
  %6 = getelementptr inbounds nuw i8, ptr %0, i64 48
  %7 = load i64, ptr %6, align 8
  %8 = trunc i64 %7 to i32
  %9 = getelementptr inbounds nuw i8, ptr %0, i64 64
  %10 = load i64, ptr %9, align 8
  %.not64 = icmp eq i64 %10, 0
  %11 = icmp slt i32 %8, 4
  br i1 %11, label %68, label %12

12:                                               ; preds = %1
  %13 = add nsw i32 %8, -4
  %14 = load i8, ptr %5, align 1
  %15 = zext i8 %14 to i32
  %16 = icmp eq i8 %14, 1
  br i1 %16, label %17, label %26

17:                                               ; preds = %12
  %18 = getelementptr inbounds nuw i8, ptr %5, i64 1
  %19 = load i8, ptr %18, align 1
  %20 = icmp eq i8 %19, 1
  %21 = and i8 %19, -2
  %22 = icmp eq i8 %21, 2
  %or.cond = or i1 %20, %22
  %23 = icmp eq i8 %19, 18
  %24 = select i1 %23, i32 16, i32 0
  %25 = select i1 %or.cond, i32 8, i32 %24
  br label %35

26:                                               ; preds = %12
  %27 = and i32 %15, 1
  %.not = icmp eq i32 %27, 0
  br i1 %.not, label %31, label %28

28:                                               ; preds = %26
  %29 = lshr i32 %15, 1
  %30 = add nsw i32 %29, -1
  br label %35

31:                                               ; preds = %26
  %32 = load i32, ptr %5, align 4
  %33 = lshr i32 %32, 2
  %34 = add nsw i32 %33, -4
  br label %35

35:                                               ; preds = %28, %31, %17
  %36 = phi i32 [ %25, %17 ], [ %30, %28 ], [ %34, %31 ]
  %37 = and i8 %14, 1
  %.not61 = icmp eq i8 %37, 0
  %.v = select i1 %.not61, i64 4, i64 1
  %38 = getelementptr inbounds nuw i8, ptr %5, i64 %.v
  %39 = tail call i32 @pg_mbstrlen_with_len(ptr noundef nonnull %38, i32 noundef %36) #13
  %40 = icmp eq i32 %39, %13
  br i1 %40, label %68, label %41

41:                                               ; preds = %35
  %42 = icmp sgt i32 %39, %13
  br i1 %42, label %43, label %54

43:                                               ; preds = %41
  %44 = tail call i32 @pg_mbcharcliplen(ptr noundef nonnull %38, i32 noundef %36, i32 noundef %13) #13
  %45 = icmp slt i32 %44, %36
  %or.cond66 = select i1 %.not64, i1 %45, i1 false
  br i1 %or.cond66, label %.lr.ph.preheader, label %.loopexit

.lr.ph.preheader:                                 ; preds = %43
  %46 = sext i32 %44 to i64
  br label %.lr.ph

47:                                               ; preds = %.lr.ph
  %indvars.iv.next = add nsw i64 %indvars.iv, 1
  %lftr.wideiv = trunc i64 %indvars.iv.next to i32
  %exitcond.not = icmp eq i32 %36, %lftr.wideiv
  br i1 %exitcond.not, label %.loopexit, label %.lr.ph, !llvm.loop !6

.lr.ph:                                           ; preds = %.lr.ph.preheader, %47
  %indvars.iv = phi i64 [ %46, %.lr.ph.preheader ], [ %indvars.iv.next, %47 ]
  %48 = getelementptr inbounds i8, ptr %38, i64 %indvars.iv
  %49 = load i8, ptr %48, align 1
  %.not62 = icmp eq i8 %49, 32
  br i1 %.not62, label %47, label %50

50:                                               ; preds = %.lr.ph
  %51 = tail call zeroext i1 @errstart_cold(i32 noundef 21, ptr noundef null) #14
  tail call void @llvm.assume(i1 %51)
  %52 = tail call i32 @errcode(i32 noundef 16777346) #13
  %53 = tail call i32 (ptr, ...) @errmsg(ptr noundef nonnull @.str, i32 noundef %13) #13
  tail call void @errfinish(ptr noundef nonnull @.str.1, i32 noundef 313, ptr noundef nonnull @__func__.bpchar) #13
  unreachable

54:                                               ; preds = %41
  %55 = add i32 %36, %13
  %56 = sub i32 %55, %39
  br label %.loopexit

.loopexit:                                        ; preds = %47, %43, %54
  %.055 = phi i32 [ %36, %54 ], [ %44, %43 ], [ %44, %47 ]
  %.053 = phi i32 [ %56, %54 ], [ %44, %43 ], [ %44, %47 ]
  %57 = add i32 %.053, 4
  %58 = sext i32 %57 to i64
  %59 = tail call ptr @palloc(i64 noundef %58) #13
  %60 = shl i32 %57, 2
  store i32 %60, ptr %59, align 4
  %61 = getelementptr inbounds nuw i8, ptr %59, i64 4
  %62 = sext i32 %.055 to i64
  tail call void @llvm.memcpy.p0.p0.i64(ptr nonnull align 1 %61, ptr nonnull align 1 %38, i64 %62, i1 false)
  %63 = icmp sgt i32 %.053, %.055
  br i1 %63, label %64, label %68

64:                                               ; preds = %.loopexit
  %65 = getelementptr inbounds i8, ptr %61, i64 %62
  %66 = sub i32 %.053, %.055
  %67 = sext i32 %66 to i64
  tail call void @llvm.memset.p0.i64(ptr nonnull align 1 %65, i8 32, i64 %67, i1 false)
  br label %68

68:                                               ; preds = %.loopexit, %64, %35, %1
  %.0.in = phi ptr [ %5, %1 ], [ %5, %35 ], [ %59, %64 ], [ %59, %.loopexit ]
  %.0 = ptrtoint ptr %.0.in to i64
  ret i64 %.0
}